; Function Attrs: nounwind uwtable
define dso_local i32 @cgroup_p_step_resume() local_unnamed_addr #0 {
  %1 = load ptr, ptr getelementptr inbounds nuw (i8, ptr @int_cg, i64 256), align 16
  %.not = icmp eq ptr %1, null
  br i1 %.not, label %4, label %2

2:                                                ; preds = %0
  %3 = tail call i32 @common_cgroup_set_param(ptr noundef nonnull getelementptr inbounds nuw (i8, ptr @int_cg, i64 240), ptr noundef nonnull @.str.28, ptr noundef nonnull @.str.30) #17
  br label %4

4:                                                ; preds = %0, %2
  %.0 = phi i32 [ %3, %2 ], [ 0, %0 ]
  ret i32 %.0
}